Microsoft (R) Macro Assembler Version 5.10                  11/29/21 12:18:5
                                                             Page     1-1


 0000				AStack  SEGMENT STACK
 0000  0400[			    DB 1024 DUP(?)
	   ??			
			 ]	
				
 0400				AStack  ENDS
				
 0000				DATA    SEGMENT
 0000  0000			    KEEP_CS DW 0    ;—Ö—Ä–∞–Ω–µ–Ω–∏–µ —Å–µ–≥–º–
				µ–Ω—Ç–∞
 0002  0000			    KEEP_IP DW 0    ;—Ö—Ä–∞–Ω–µ–Ω–∏–µ —Å–º–µ—â–
				µ–Ω–∏—è –≤–µ–∫—Ç–æ—Ä–∞ –ø—Ä–µ—Ä—ã–≤–∞–Ω–∏—è
 0004				DATA    ENDS
				
 0000				CODE    SEGMENT
				    ASSUME CS:CODE, DS:DATA, SS:AStack
				
 0000				my_int PROC FAR
 0000  EB 70 90			    jmp start
 0003  0000			    KEEP_SS DW 0
 0005  0000			    KEEP_SP DW 0
 0007  0000			    KEEP_AX DW 0
 0009  001E[				IStack DW 30 DUP(?)
	   ????			
			 ]	
				
					
 0045				hours proc
 0045  8A C5			    mov al,ch
 0047  E8 005E R		    call two_digit
 004A  C3			    ret
 004B				hours endp
				 
 004B				minutes proc
 004B  8A C1			    mov al,cl
 004D  E8 005E R		    call two_digit
 0050  C3			    ret
 0051				minutes endp
				 
 0051				seconds proc
 0051  8A C6			    mov al,dh
 0053  E8 005E R		    call two_digit
 0056  C3			    ret
 0057				seconds endp
				 
 0057				colon proc
 0057  B4 02			    mov ah,2
 0059  B2 3A			    mov dl,':'
 005B  CD 21			    int 21h
 005D  C3			    ret
 005E				colon endp
				 
 005E				two_digit proc  ;–ü—Ä–æ—Ü–µ–¥—É—Ä–∞ –≤—ã–≤–æ–¥–
				∞ –¥–≤—É–∑–Ω–∞—á–Ω–æ–≥–æ —á–∏—Å–ª–∞.
Microsoft (R) Macro Assembler Version 5.10                  11/29/21 12:18:5
                                                             Page     1-2


 005E  52			    push dx
 005F  D4 0A			        aam 
 0061  05 3030			        add ax,3030h 
 0064  8A D4			        mov dl,ah 
 0066  8A F0			        mov dh,al 
 0068  B4 02			        mov ah,02 
 006A  CD 21			        int 21h 
 006C  8A D6			        mov dl,dh 
 006E  CD 21			        int 21h
 0070  5A			    pop dx
 0071  C3			    ret
 0072				two_digit endp
				
 0072				start:
 0072  2E: 89 26 0005 R		    MOV KEEP_SP, SP
 0077  2E: A3 0007 R		    MOV KEEP_AX, AX
 007B  8C D0			    MOV AX, SS
 007D  2E: A3 0003 R		    MOV KEEP_SS, AX
 0081  2E: A1 0007 R		    MOV AX, KEEP_AX
 0085  BC 0072 R		    MOV SP, OFFSET start
 0088  8E D0			    MOV SS, AX
				
 008A  50			    push AX    ; —Å–æ—Ö—Ä–∞–Ω–µ–Ω–∏–µ –∏–∑–º–µ–
				Ω—è–µ–º—ã—Ö —Ä–µ–≥–∏—Å—Ç—Ä–æ–≤
 008B  52			    push DX 
				 ;---------------------------------------------
 008C  50				push ax     
 008D  B4 2C			    mov ah, 2ch   ; –ø–æ–º–µ—â–∞–µ–º –∫–æ–¥ —Ñ—
				É–Ω–∫—Ü–∏–∏ 2ch - –ø–æ–ª—É—á–∏—Ç—å —Å–∏—Å –≤—Ä–
				µ–º—è
 008F  CD 21			    int 21h ; –≤—ã–∑–æ–≤ –ø—Ä–µ—Ä—ã–≤–∞–Ω–∏—è m
				s-dos
 0091  58			    pop ax 
 0092  E8 0045 R			call hours
 0095  E8 0057 R			call colon
 0098  E8 004B R			call minutes
 009B  E8 0057 R			call colon
 009E  E8 0051 R			call seconds
				 ;-----------------------------
					
 00A1  5A			    pop DX 
 00A2  58			    pop AX 
 00A3  2E: A3 0007 R		    MOV  KEEP_AX, AX
 00A7  2E: 8B 26 0005 R		    MOV SP, KEEP_SP
 00AC  2E: A1 0003 R		    MOV AX, KEEP_SS
 00B0  8E D0			    MOV SS, AX
 00B2  2E: A1 0007 R		    MOV AX, KEEP_AX
				
 00B6  B0 20			    mov al,20h
 00B8  E6 20			    out 20h,al
 00BA  CF			    iret
 00BB				my_int ENDP
				
 00BB				MAIN PROC FAR
Microsoft (R) Macro Assembler Version 5.10                  11/29/21 12:18:5
                                                             Page     1-3


 00BB  B8 ---- R		    MOV AX, DATA
 00BE  8E D8			    MOV DS, AX  ; —Å–æ—Ö—Ä–∞–Ω—è–µ–º –≤–µ–∫—Ç–æ
				—Ä –ø—Ä–µ—Ä—ã–≤–∞–Ω–∏—è
 00C0  B4 35			    MOV AH, 35H ; —Ñ—É–Ω–∫—Ü–∏—è –ø–æ–ª—É—á–µ–Ω
				–∏—è –≤–µ–∫—Ç–æ—Ä–∞
 00C2  B0 23				MOV AL, 23H ; –Ω–æ–º–µ—Ä –Ω—É–∂–Ω–æ–≥–æ
				 –≤–µ–∫—Ç–æ—Ä–∞
 00C4  CD 21				INT 21H
 00C6  89 1E 0002 R			MOV KEEP_IP, BX ; –∑–∞–ø–æ–º–∏–Ω–∞–Ω–∏–
				µ —Å–º–µ—â–µ–Ω–∏—è
 00CA  8C 06 0000 R			MOV KEEP_CS, ES ; –∏ —Å–µ–≥–º–µ–Ω—Ç–∞ –
				≤–µ–∫—Ç–æ—Ä–∞ –ø—Ä–µ—Ä—ã–≤–∞–Ω–∏—è
				
 00CE  1E			    PUSH DS
 00CF  BA 0000 R		    MOV DX, OFFSET my_int ; —Å–º–µ—â–µ–Ω–∏–µ –¥
				–ª—è –ø—Ä–æ—Ü–µ–¥—É—Ä—ã –≤ DX
 00D2  B8 ---- R		    MOV AX, SEG my_int ; —Å–µ–≥–º–µ–Ω—Ç –ø—Ä–æ—
				Ü–µ–¥—É—Ä—ã
 00D5  8E D8			    MOV DS, AX; –ø–æ–º–µ—â–∞–µ–º –≤ DS
 00D7  B4 25			    MOV AH, 25H; —Ñ—É–Ω–∫—Ü–∏—è —É—Å—Ç–∞–Ω–æ–≤–
				∫–∏ –≤–µ–∫—Ç–æ—Ä–∞
 00D9  B0 23			    MOV AL, 23H; –Ω–æ–º–µ—Ä –≤–µ–∫—Ç–æ—Ä–∞
 00DB  CD 21			    INT 21H; –º–µ–Ω—è–µ–º –ø—Ä–µ—Ä—ã–≤–∞–Ω–∏–µ
 00DD  1F			    POP DS
				
 00DE				ctrl_c:
 00DE  B4 00			    mov ah, 0
 00E0  CD 16			    int 16h
 00E2  3C 03			    cmp al, 3  ;–∫–æ–¥ —Å–∏–º–≤–æ–ª–∞ –ø–æ—Å–ª–
				µ –Ω–∞–∂–∞—Ç–∏—è 
 00E4  75 F8			    jne ctrl_c
				
 00E6  CD 23			    INT 23H
				
 00E8  FA			    CLI
 00E9  1E			    PUSH DS
 00EA  8B 16 0002 R		    MOV DX, KEEP_IP
 00EE  A1 0000 R		    MOV AX, KEEP_CS
 00F1  8E D8			    MOV DS, AX
 00F3  B4 25			    MOV AH, 25H
 00F5  B0 23			    MOV AL, 23H
 00F7  CD 21			    INT 21H
				    ; –≤–æ—Å—Å—Ç–∞–Ω–∞–≤–ª–∏–≤–∞–µ–º —Å—Ç–∞—Ä—ã
				–π –≤–µ–∫—Ç–æ—Ä –ø—Ä–µ—Ä—ã–≤–∞–Ω–∏—è
 00F9  1F			    POP DS
 00FA  FB			    STI
				
 00FB  B4 4C			    MOV AH, 4CH
 00FD  CD 21			    INT 21H
				
 00FF				MAIN ENDP
 00FF				CODE ENDS
				END MAIN
Microsoft (R) Macro Assembler Version 5.10                  11/29/21 12:18:5
                                                             Symbols-1


Segments and Groups:

                N a m e         	Length	 Align	Combine Class

ASTACK . . . . . . . . . . . . .  	0400	PARA	STACK	
CODE . . . . . . . . . . . . . .  	00FF	PARA	NONE	
DATA . . . . . . . . . . . . . .  	0004	PARA	NONE	

Symbols:            

                N a m e         	Type	 Value	 Attr

COLON  . . . . . . . . . . . . .  	N PROC	0057	CODE	Length = 0007
CTRL_C . . . . . . . . . . . . .  	L NEAR	00DE	CODE

HOURS  . . . . . . . . . . . . .  	N PROC	0045	CODE	Length = 0006

ISTACK . . . . . . . . . . . . .  	L WORD	0009	CODE	Length = 001E

KEEP_AX  . . . . . . . . . . . .  	L WORD	0007	CODE
KEEP_CS  . . . . . . . . . . . .  	L WORD	0000	DATA
KEEP_IP  . . . . . . . . . . . .  	L WORD	0002	DATA
KEEP_SP  . . . . . . . . . . . .  	L WORD	0005	CODE
KEEP_SS  . . . . . . . . . . . .  	L WORD	0003	CODE

MAIN . . . . . . . . . . . . . .  	F PROC	00BB	CODE	Length = 0044
MINUTES  . . . . . . . . . . . .  	N PROC	004B	CODE	Length = 0006
MY_INT . . . . . . . . . . . . .  	F PROC	0000	CODE	Length = 00BB

SECONDS  . . . . . . . . . . . .  	N PROC	0051	CODE	Length = 0006
START  . . . . . . . . . . . . .  	L NEAR	0072	CODE

TWO_DIGIT  . . . . . . . . . . .  	N PROC	005E	CODE	Length = 0014

@CPU . . . . . . . . . . . . . .  	TEXT  0101h		
@FILENAME  . . . . . . . . . . .  	TEXT  lb5		
@VERSION . . . . . . . . . . . .  	TEXT  510		


    138 Source  Lines
    138 Total   Lines
     23 Symbols

  48034 + 459226 Bytes symbol space free

      0 Warning Errors
      0 Severe  Errors
