Microsoft (R) Macro Assembler Version 5.10                  12/26/21 17:01:2
                                                             Page     1-1


 0000				AStack  SEGMENT STACK
 0000  0400[			    DB 1024 DUP(?)
	   ??			
			 ]	
				
 0400				AStack  ENDS
				
 0000				DATA    SEGMENT
 0000  0000			    KEEP_CS DW 0    ;—Ö—Ä–∞–Ω–µ–Ω–∏–µ —Å–µ–≥–º–
				µ–Ω—Ç–∞
 0002  0000			    KEEP_IP DW 0    ;—Ö—Ä–∞–Ω–µ–Ω–∏–µ —Å–º–µ—â–
				µ–Ω–∏—è –≤–µ–∫—Ç–æ—Ä–∞ –ø—Ä–µ—Ä—ã–≤–∞–Ω–∏—è
 0004				DATA    ENDS
				
 0000				CODE    SEGMENT
				    ASSUME CS:CODE, DS:DATA, SS:AStack
				
 0000				my_int PROC FAR
 0000  EB 64 90			    jmp start
 0003  0000			    KEEP_SS DW 0
 0005  0000			    KEEP_SP DW 0
 0007  0000			    KEEP_AX DW 0
 0009  001E[				IStack DW 30 DUP(?)
	   ????			
			 ]	
				
					
 0045				time proc
					;mov AX, 1000
 0045  B9 03E8			    MOV CX, 1000
 0048  B0 B6				MOV AL, 10110110b ; 0B6H
 004A  E6 43				OUT 43H, AL ; –ö–æ–¥ –¥–ª—è —É—Å—Ç–∞–Ω–
				æ–≤–ª–µ–Ω–∏—è –∫–∞–Ω–∞–ª–∞ 2 —Ç–∞–π–º–µ—Ä–∞-—Å—
				á–µ—Ç—á–∏–∫–∞ –Ω–∞ —Ä–∞–±–æ—Ç—É –≤ –∫–∞—á–µ—Å—Ç
				–≤–µ –¥–µ–ª–∏—Ç–µ–ª—è —á–∞—Å—Ç–æ—Ç—ã —Å–º. –º–µ
				—Ç–æ–¥—É
 004C  8B C1				MOV AX, CX ; –ó–∞–Ω–æ—Å–∏–º –≤ AX –≤—ã—
				Å–æ—Ç—É –∑–≤—É–∫–∞
 004E  E6 42				OUT 42H, AL
 0050  8A C4				MOV AL, AH
 0052  E6 42				OUT 42H, AL ; –ó–∞–Ω–æ—Å–∏–º –ø–æ–æ—á–µ
				—Ä–µ–¥–Ω–æ 2 –±–∞–π—Ç–∞ –≤ –ø–æ—Ä—Ç 42h(—Ä–µ–≥–
				∏—Å—Ç—Ä –∫–∞–Ω–∞–ª–∞ 2)
 0054  E4 61				IN AL, 61H ; –≥–µ–Ω–µ—Ä–∞—Ü–∏—è –∑–≤—É–
				∫–∞ –ø—É—Ç—ë–º —Å–¥–≤–∏–≥–∞ –¥–∏—Ñ—Ñ—É–∑–æ—Ä–∞ 
				—Ç—É–¥–∞-–æ–±—Ä–∞—Ç–Ω–æ
 0056  8A E0				MOV AH, AL
 0058  0C 03				OR AL, 3
 005A  E6 61				OUT 61H, AL
 005C  2B C9				SUB CX, CX
 005E					WHILE_TIME:
 005E  90				NOP
 005F  E2 FD				LOOP WHILE_TIME ; –¶–∏–∫–ª, –ø–æ–∫–∞ –¥
				–∏–Ω–∞–º–∏–∫ —Ä–∞–±–æ—Ç–∞–µ—Ç
Microsoft (R) Macro Assembler Version 5.10                  12/26/21 17:01:2
                                                             Page     1-2


 0061  8A C4				MOV AL, AH
 0063  E6 61				OUT 61H, AL
				    
					;int 21H
 0065  C3			    ret
 0066				time endp
				
 0066				start:
 0066  2E: 89 26 0005 R		    MOV KEEP_SP, SP
 006B  2E: A3 0007 R		    MOV KEEP_AX, AX
 006F  8C D0			    MOV AX, SS
 0071  2E: A3 0003 R		    MOV KEEP_SS, AX
 0075  2E: A1 0007 R		    MOV AX, KEEP_AX
 0079  BC 0066 R		    MOV SP, OFFSET start
 007C  8E D0			    MOV SS, AX
				
 007E  50			    push AX    ; —Å–æ—Ö—Ä–∞–Ω–µ–Ω–∏–µ –∏–∑–º–µ–
				Ω—è–µ–º—ã—Ö —Ä–µ–≥–∏—Å—Ç—Ä–æ–≤
 007F  52			    push DX 
				 ;---------------------------------------------
 0080  CD 21			    int 21h ; –≤—ã–∑–æ–≤ –ø—Ä–µ—Ä—ã–≤–∞–Ω–∏—è m
				s-dos
 0082  E8 0045 R			call time
				 ;-----------------------------
					
 0085  5A			    pop DX 
 0086  58			    pop AX 
 0087  2E: A3 0007 R		    MOV  KEEP_AX, AX
 008B  2E: 8B 26 0005 R		    MOV SP, KEEP_SP
 0090  2E: A1 0003 R		    MOV AX, KEEP_SS
 0094  8E D0			    MOV SS, AX
 0096  2E: A1 0007 R		    MOV AX, KEEP_AX
				
 009A  B0 20			    mov al,20h
 009C  E6 20			    out 20h,al
 009E  CF			    iret
 009F				my_int ENDP
				
 009F				MAIN PROC FAR
 009F  B8 ---- R		    MOV AX, DATA
 00A2  8E D8			    MOV DS, AX  ; —Å–æ—Ö—Ä–∞–Ω—è–µ–º –≤–µ–∫—Ç–æ
				—Ä –ø—Ä–µ—Ä—ã–≤–∞–Ω–∏—è
 00A4  B4 35			    MOV AH, 35H ; —Ñ—É–Ω–∫—Ü–∏—è –ø–æ–ª—É—á–µ–Ω
				–∏—è –≤–µ–∫—Ç–æ—Ä–∞
 00A6  B0 23				MOV AL, 23H ; –Ω–æ–º–µ—Ä –Ω—É–∂–Ω–æ–≥–æ
				 –≤–µ–∫—Ç–æ—Ä–∞
 00A8  CD 21				INT 21H
 00AA  89 1E 0002 R			MOV KEEP_IP, BX ; –∑–∞–ø–æ–º–∏–Ω–∞–Ω–∏–
				µ —Å–º–µ—â–µ–Ω–∏—è
 00AE  8C 06 0000 R			MOV KEEP_CS, ES ; –∏ —Å–µ–≥–º–µ–Ω—Ç–∞ –
				≤–µ–∫—Ç–æ—Ä–∞ –ø—Ä–µ—Ä—ã–≤–∞–Ω–∏—è
				
 00B2  1E			    PUSH DS
 00B3  BA 0000 R		    MOV DX, OFFSET my_int ; —Å–º–µ—â–µ–Ω–∏–µ –¥
Microsoft (R) Macro Assembler Version 5.10                  12/26/21 17:01:2
                                                             Page     1-3


				–ª—è –ø—Ä–æ—Ü–µ–¥—É—Ä—ã –≤ DX
 00B6  B8 ---- R		    MOV AX, SEG my_int ; —Å–µ–≥–º–µ–Ω—Ç –ø—Ä–æ—
				Ü–µ–¥—É—Ä—ã
 00B9  8E D8			    MOV DS, AX; –ø–æ–º–µ—â–∞–µ–º –≤ DS
 00BB  B4 25			    MOV AH, 25H; —Ñ—É–Ω–∫—Ü–∏—è —É—Å—Ç–∞–Ω–æ–≤–
				∫–∏ –≤–µ–∫—Ç–æ—Ä–∞
 00BD  B0 23			    MOV AL, 23H; –Ω–æ–º–µ—Ä –≤–µ–∫—Ç–æ—Ä–∞
 00BF  CD 21			    INT 21H; –º–µ–Ω—è–µ–º –ø—Ä–µ—Ä—ã–≤–∞–Ω–∏–µ
 00C1  1F			    POP DS
				
 00C2				ctrl_c:
 00C2  B4 00			    mov ah, 0
 00C4  CD 16			    int 16h
 00C6  3C 03			    cmp al, 3  ;–∫–æ–¥ —Å–∏–º–≤–æ–ª–∞ –ø–æ—Å–ª–
				µ –Ω–∞–∂–∞—Ç–∏—è 
 00C8  75 F8			    jne ctrl_c
				
 00CA  CD 23			    INT 23H
				
 00CC  FA			    CLI
 00CD  1E			    PUSH DS
 00CE  8B 16 0002 R		    MOV DX, KEEP_IP
 00D2  A1 0000 R		    MOV AX, KEEP_CS
 00D5  8E D8			    MOV DS, AX
 00D7  B4 25			    MOV AH, 25H
 00D9  B0 23			    MOV AL, 23H
 00DB  CD 21			    INT 21H
				    ; –≤–æ—Å—Å—Ç–∞–Ω–∞–≤–ª–∏–≤–∞–µ–º —Å—Ç–∞—Ä—ã
				–π –≤–µ–∫—Ç–æ—Ä –ø—Ä–µ—Ä—ã–≤–∞–Ω–∏—è
 00DD  1F			    POP DS
 00DE  FB			    STI
				
 00DF  B4 4C			    MOV AH, 4CH
 00E1  CD 21			    INT 21H
				
 00E3				MAIN ENDP
 00E3				CODE ENDS
				END MAIN
Microsoft (R) Macro Assembler Version 5.10                  12/26/21 17:01:2
                                                             Symbols-1


Segments and Groups:

                N a m e         	Length	 Align	Combine Class

ASTACK . . . . . . . . . . . . .  	0400	PARA	STACK	
CODE . . . . . . . . . . . . . .  	00E3	PARA	NONE	
DATA . . . . . . . . . . . . . .  	0004	PARA	NONE	

Symbols:            

                N a m e         	Type	 Value	 Attr

CTRL_C . . . . . . . . . . . . .  	L NEAR	00C2	CODE

ISTACK . . . . . . . . . . . . .  	L WORD	0009	CODE	Length = 001E

KEEP_AX  . . . . . . . . . . . .  	L WORD	0007	CODE
KEEP_CS  . . . . . . . . . . . .  	L WORD	0000	DATA
KEEP_IP  . . . . . . . . . . . .  	L WORD	0002	DATA
KEEP_SP  . . . . . . . . . . . .  	L WORD	0005	CODE
KEEP_SS  . . . . . . . . . . . .  	L WORD	0003	CODE

MAIN . . . . . . . . . . . . . .  	F PROC	009F	CODE	Length = 0044
MY_INT . . . . . . . . . . . . .  	F PROC	0000	CODE	Length = 009F

START  . . . . . . . . . . . . .  	L NEAR	0066	CODE

TIME . . . . . . . . . . . . . .  	N PROC	0045	CODE	Length = 0021

WHILE_TIME . . . . . . . . . . .  	L NEAR	005E	CODE

@CPU . . . . . . . . . . . . . .  	TEXT  0101h		
@FILENAME  . . . . . . . . . . .  	TEXT  A		
@VERSION . . . . . . . . . . . .  	TEXT  510		


    116 Source  Lines
    116 Total   Lines
     20 Symbols

  48044 + 459216 Bytes symbol space free

      0 Warning Errors
      0 Severe  Errors
