Microsoft (R) Macro Assembler Version 5.10                  11/8/21 02:38:27
                                                             Page     1-1


 0000				AStack SEGMENT  STACK
 0000  000C[			    DW 12 DUP(?)
	   ????			
			 ]	
				
 0018				AStack  ENDS
				;–î–∞–Ω–Ω—ã–µ –ø—Ä–æ–≥—Ä–∞–º–º—ã
 0000				DATA      SEGMENT
				;–î–∏—Ä–µ–∫—Ç–∏–≤—ã –æ–ø–∏—Å–∞–Ω–∏—è –¥–∞–Ω–Ω—ã
				—Ö
 0000  0000			a      DW    0
 0002  0000			b      DW    0
 0004  0000			i      DW    0
 0006  000D			k      DW    13
 0008  0000			i1     DW    0
 000A  0000			i2     DW    0
				
 000C				DATA      ENDS
				
				; –ö–æ–¥ –ø—Ä–æ–≥—Ä–∞–º–º—ã
 0000				CODE      SEGMENT
				      ASSUME CS:CODE, DS:DATA, SS:AStack
					  
				; –ì–æ–ª–æ–≤–Ω–∞—è –ø—Ä–æ—Ü–µ–¥—É—Ä–∞
 0000				Main      PROC  FAR
 0000  1E			      push  DS
 0001  2B C0			      sub   AX,AX
 0003  50			      push  AX
 0004  B8 ---- R		      mov   AX,DATA
 0007  8E D8			      mov   DS,AX
 0009  B9 0000				  mov   CX, 0
					  
 000C  C7 06 0000 R 0005		  mov a, 5
 0012  C7 06 0002 R 0003		  mov b, 3
 0018  C7 06 0004 R 0008		  mov i, 8
 001E  C7 06 0006 R FFFE		  mov k, -2
				
					  ;f1&f2
 0024  8B 0E 0004 R			  mov cx, i
 0028  D1 E1				  shl cx, 1 ; cx = 2*i
 002A  8B C1				  mov ax, cx ; ax = 2*i
 002C  8B 1E 0002 R			  mov bx, b
				
 0030  39 1E 0000 R			  cmp a, bx ; —Å—Ä–∞–≤–Ω–µ–Ω–∏–µ a –∏ b
 0034  7E 19				  jle f1f2
 0036  F7 D9					neg cx ; a > b
 0038  83 C1 0F					add cx, 15
 003B  89 0E 0008 R				mov i1, cx
						
 003F  89 0E 000A R				mov i2, cx
 0043  29 06 000A R				sub i2, ax
 0047  83 06 000A R 05				add i2, 5
 004C  EB 19 90					jmp f1f2End
						
Microsoft (R) Macro Assembler Version 5.10                  11/8/21 02:38:27
                                                             Page     1-2


 004F					  f1f2: ; a <= b
 004F  03 0E 0004 R				add cx, i ; cx = 3i
 0053  89 0E 0008 R				mov i1, cx 
 0057  83 06 0008 R 04				add i1, 4
						
 005C  F7 D9					neg cx
 005E  03 C9					add cx, cx
 0060  83 C1 06					add cx, 6
 0063  89 0E 000A R				mov i2, cx
 0067					  f1f2End:  
					  
					  ;f4
 0067  8B 0E 0008 R			  mov cx, i1
 006B  2B 0E 000A R			  sub cx, i2
 006F  83 F9 00				  cmp cx, 0
 0072  7D 02				  jge module
 0074  F7 D9				    neg cx
 0076					  module: ; cx = |i1 - i2|
					  
 0076  8B 1E 0006 R			  mov bx, k
 007A  83 FB 00				  cmp bx, 0 ; —Å—Ä–∞–≤–Ω–µ–Ω–∏–µ k –∏ 0
 007D  7D 10				  jge f4
 007F  BB 0002				    mov bx, 2 ; k < 0
 0082  3B CB					cmp cx, bx
 0084  7C 06					jl min
 0086  B9 0002					  mov cx, 2
 0089  EB 13 90					  jmp MainEnd
 008C						min:
 008C  EB 10 90					  jmp MainEnd
 008F					  f4:        ; k >= 0
 008F  8B 0E 000A R			  mov cx, i2
 0093  F7 D9				  neg cx
 0095  BB FFFA				  mov bx, -6
 0098  3B D9				  cmp bx, cx
 009A  7D 02				  jge max
 009C  8B CB					mov cx, bx
 009E					  max:
 009E					  MainEnd: ; –≤ cx –ª–µ–∂–∏—Ç –∑–Ω–∞—á–
				µ–Ω–∏–µ —Ñ—É–Ω–∫—Ü–∏–∏ f4
 009E  CB			      ret
 009F				Main      ENDP
 009F				CODE      ENDS
				END Main
Microsoft (R) Macro Assembler Version 5.10                  11/8/21 02:38:27
                                                             Symbols-1


Segments and Groups:

                N a m e         	Length	 Align	Combine Class

ASTACK . . . . . . . . . . . . .  	0018	PARA	STACK	
CODE . . . . . . . . . . . . . .  	009F	PARA	NONE	
DATA . . . . . . . . . . . . . .  	000C	PARA	NONE	

Symbols:            

                N a m e         	Type	 Value	 Attr

A  . . . . . . . . . . . . . . .  	L WORD	0000	DATA

B  . . . . . . . . . . . . . . .  	L WORD	0002	DATA

F1F2 . . . . . . . . . . . . . .  	L NEAR	004F	CODE
F1F2END  . . . . . . . . . . . .  	L NEAR	0067	CODE
F4 . . . . . . . . . . . . . . .  	L NEAR	008F	CODE

I  . . . . . . . . . . . . . . .  	L WORD	0004	DATA
I1 . . . . . . . . . . . . . . .  	L WORD	0008	DATA
I2 . . . . . . . . . . . . . . .  	L WORD	000A	DATA

K  . . . . . . . . . . . . . . .  	L WORD	0006	DATA

MAIN . . . . . . . . . . . . . .  	F PROC	0000	CODE	Length = 009F
MAINEND  . . . . . . . . . . . .  	L NEAR	009E	CODE
MAX  . . . . . . . . . . . . . .  	L NEAR	009E	CODE
MIN  . . . . . . . . . . . . . .  	L NEAR	008C	CODE
MODULE . . . . . . . . . . . . .  	L NEAR	0076	CODE

@CPU . . . . . . . . . . . . . .  	TEXT  0101h		
@FILENAME  . . . . . . . . . . .  	TEXT  lab3		
@VERSION . . . . . . . . . . . .  	TEXT  510		


     92 Source  Lines
     92 Total   Lines
     22 Symbols

  47978 + 461329 Bytes symbol space free

      0 Warning Errors
      0 Severe  Errors
